; ModuleID = '36/165.c'
source_filename = "36/165.c"
target datalayout = "e-m:e-p270:32:32-p271:32:32-p272:64:64-i64:64-f80:128-n8:16:32:64-S128"
target triple = "x86_64-pc-linux-gnu"

@.str = private unnamed_addr constant [5 x i8] c"%s%s\00", align 1
@.str.1 = private unnamed_addr constant [3 x i8] c"NO\00", align 1
@.str.2 = private unnamed_addr constant [4 x i8] c"YES\00", align 1

; Function Attrs: noinline nounwind uwtable
define dso_local i32 @mycompare(i8* %0, i8* %1) #0 {
  %3 = alloca i8*, align 8
  %4 = alloca i8*, align 8
  %5 = alloca i8*, align 8
  %6 = alloca i8*, align 8
  store i8* %0, i8** %3, align 8
  store i8* %1, i8** %4, align 8
  %7 = load i8*, i8** %3, align 8
  store i8* %7, i8** %5, align 8
  %8 = load i8*, i8** %4, align 8
  store i8* %8, i8** %6, align 8
  %9 = load i8*, i8** %5, align 8
  %10 = load i8, i8* %9, align 1
  %11 = sext i8 %10 to i32
  %12 = load i8*, i8** %6, align 8
  %13 = load i8, i8* %12, align 1
  %14 = sext i8 %13 to i32
  %15 = sub nsw i32 %11, %14
  ret i32 %15
}

; Function Attrs: noinline nounwind uwtable
define dso_local i32 @main() #0 {
  %1 = alloca i32, align 4
  %2 = alloca [100 x i8], align 16
  %3 = alloca [100 x i8], align 16
  store i32 0, i32* %1, align 4
  %4 = bitcast [100 x i8]* %2 to i8*
  call void @llvm.memset.p0i8.i64(i8* align 16 %4, i8 0, i64 100, i1 false)
  %5 = bitcast [100 x i8]* %3 to i8*
  call void @llvm.memset.p0i8.i64(i8* align 16 %5, i8 0, i64 100, i1 false)
  %6 = getelementptr inbounds [100 x i8], [100 x i8]* %2, i64 0, i64 0
  %7 = getelementptr inbounds [100 x i8], [100 x i8]* %3, i64 0, i64 0
  %8 = call i32 (i8*, ...) @__isoc99_scanf(i8* getelementptr inbounds ([5 x i8], [5 x i8]* @.str, i64 0, i64 0), i8* %6, i8* %7)
  %9 = getelementptr inbounds [100 x i8], [100 x i8]* %2, i64 0, i64 0
  %10 = getelementptr inbounds [100 x i8], [100 x i8]* %2, i64 0, i64 0
  %11 = call i64 @strlen(i8* %10) #4
  call void @qsort(i8* %9, i64 %11, i64 1, i32 (i8*, i8*)* @mycompare)
  %12 = getelementptr inbounds [100 x i8], [100 x i8]* %3, i64 0, i64 0
  %13 = getelementptr inbounds [100 x i8], [100 x i8]* %3, i64 0, i64 0
  %14 = call i64 @strlen(i8* %13) #4
  call void @qsort(i8* %12, i64 %14, i64 1, i32 (i8*, i8*)* @mycompare)
  %15 = getelementptr inbounds [100 x i8], [100 x i8]* %2, i64 0, i64 0
  %16 = getelementptr inbounds [100 x i8], [100 x i8]* %3, i64 0, i64 0
  %17 = call i32 @strcmp(i8* %15, i8* %16) #4
  %18 = icmp ne i32 %17, 0
  br i1 %18, label %19, label %21

19:                                               ; preds = %0
  %20 = call i32 (i8*, ...) @printf(i8* getelementptr inbounds ([3 x i8], [3 x i8]* @.str.1, i64 0, i64 0))
  br label %23

21:                                               ; preds = %0
  %22 = call i32 (i8*, ...) @printf(i8* getelementptr inbounds ([4 x i8], [4 x i8]* @.str.2, i64 0, i64 0))
  br label %23

23:                                               ; preds = %21, %19
  ret i32 0
}

; Function Attrs: argmemonly nounwind willreturn
declare void @llvm.memset.p0i8.i64(i8* nocapture writeonly, i8, i64, i1 immarg) #1

declare dso_local i32 @__isoc99_scanf(i8*, ...) #2

declare dso_local void @qsort(i8*, i64, i64, i32 (i8*, i8*)*) #2

; Function Attrs: nounwind readonly
declare dso_local i64 @strlen(i8*) #3

; Function Attrs: nounwind readonly
declare dso_local i32 @strcmp(i8*, i8*) #3

declare dso_local i32 @printf(i8*, ...) #2


!llvm.module.flags = !{!0}
!llvm.ident = !{!1}

!0 = !{i32 1, !"wchar_size", i32 4}
!1 = !{!"clang version 10.0.0-4ubuntu1 "}
